target datalayout = "e-m:e-p270:32:32-p271:32:32-p272:64:64-i64:64-i128:128-f80:128-n8:16:32:64-S128"
target triple = "x86_64-unknown-linux-gnu"

%struct.redisServer = type { i32, i64, ptr, ptr, ptr, i32, i32, i32, i32, i32, ptr, ptr, ptr, ptr, ptr, ptr, i32, i32, i64, i32, i32, i32, i32, ptr, i32, i32, [41 x i8], i32, i64, i32, i32, i32, ptr, ptr, i32, i32, i64, ptr, ptr, ptr, ptr, [2 x i32], i32, i32, i32, i32, i32, [16 x ptr], i32, ptr, ptr, i32, [8 x %struct.connListener], i32, %struct.connListener, ptr, ptr, ptr, ptr, ptr, ptr, ptr, ptr, ptr, ptr, i32, ptr, i32, ptr, [3 x %struct.pause_event], [256 x i8], ptr, i64, i32, i32, i32, i32, i64, i32, i32, i32, i32, i32, i64, i64, i64, i64, i64, i64, i64, i64, i64, double, i64, i64, i64, i64, i64, i64, i64, i64, i64, i64, i64, i64, i64, i64, i64, i64, i64, i64, i64, i64, double, i64, i64, i64, i64, i64, ptr, i64, i64, i64, %struct.malloc_stats, i64, i64, i64, i64, i64, i64, i64, i64, i64, i64, i64, i64, double, [4 x i64], i64, i64, i64, i64, i64, i64, i64, i64, i64, i64, [7 x %struct.anon], i64, i64, i64, i64, i64, i64, [4 x %struct.durationStats], i32, i32, i32, i32, i32, i32, i32, i32, i32, i32, i64, i32, i32, i32, i32, i64, i64, i32, i32, i32, i32, i32, ptr, [3 x %struct.clientBufferLimitsConfig], i32, i32, ptr, i32, i32, i32, i32, ptr, ptr, i32, i32, i64, i64, i64, i64, i64, i32, i32, ptr, i32, i32, i64, i64, i64, i64, i64, i32, i32, i64, i32, i32, i32, i32, i32, i32, i32, i32, ptr, i32, i64, i64, i64, i64, ptr, i32, ptr, i32, i32, i32, i64, i64, i64, i64, i32, i32, i32, i32, i32, i32, ptr, i32, i32, ptr, i32, i32, i32, [2 x i32], i32, %struct.redisOpArray, i32, ptr, i32, ptr, i32, i32, i32, i32, i32, i32, i32, [41 x i8], [41 x i8], i64, i64, i64, i64, i32, i32, ptr, i64, i64, i64, i32, i32, i32, i32, i32, i32, i32, i64, ptr, ptr, ptr, ptr, i32, i32, ptr, ptr, i32, i32, i64, i64, i64, ptr, i32, ptr, i64, i32, i32, i32, i64, i32, i32, i32, i32, ptr, i32, i32, [41 x i8], i64, i32, ptr, i32, i32, i64, i64, i32, i32, i32, i32, i32, i64, [3 x i32], i32, i32, i32, [9 x i32], ptr, ptr, i32, i64, ptr, ptr, i32, i32, i32, i32, i64, i64, i64, i64, i64, i64, i64, i64, i64, i64, i32, i32, i64, i64, i32, i64, i64, i64, i64, i64, ptr, ptr, i32, ptr, i32, i32, i32, i64, i64, ptr, ptr, i32, i32, i32, i32, i32, ptr, ptr, ptr, i32, i32, i32, i32, i32, i32, i32, i64, i32, i64, i32, i32, i32, i32, i32, i32, i32, i64, ptr, ptr, i64, ptr, i32, %struct.aclInfo, i32, i64, i32, i32, i32, %struct.redisTLSContextConfig, ptr, ptr, ptr, ptr, ptr, i64, i32, ptr, i32, i32, i32, i64, i32, ptr }
%struct.connListener = type { [16 x i32], i32, ptr, i32, i32, ptr, ptr }
%struct.pause_event = type { i32, i64 }
%struct.malloc_stats = type { i64, i64, i64, i64, i64 }
%struct.anon = type { i64, i64, [16 x i64], i32 }
%struct.durationStats = type { i64, i64, i64 }
%struct.clientBufferLimitsConfig = type { i64, i64, i64 }
%struct.redisOpArray = type { ptr, i32, i32 }
%struct.aclInfo = type { i64, i64, i64, i64 }
%struct.redisTLSContextConfig = type { ptr, ptr, ptr, ptr, ptr, ptr, ptr, ptr, ptr, ptr, ptr, ptr, i32, i32, i32, i32 }
%struct.redisObject = type { i32, i32, ptr }

@server = external global %struct.redisServer, align 8
@.str.241 = private unnamed_addr constant [16 x i8] c"Object type: %u\00", align 1
@.str.242 = private unnamed_addr constant [20 x i8] c"Object encoding: %u\00", align 1
@.str.243 = private unnamed_addr constant [20 x i8] c"Object refcount: %d\00", align 1

; Function Attrs: nounwind uwtable
define dso_local void @serverLogObjectDebugInfo(ptr noundef %o) #0 {
entry:
  %o.addr = alloca ptr, align 8
  store ptr %o, ptr %o.addr, align 8
  br label %do.body

do.body:                                          ; preds = %entry
  %0 = load i32, ptr getelementptr inbounds (%struct.redisServer, ptr @server, i32 0, i32 156), align 8
  %cmp = icmp slt i32 3, %0
  br i1 %cmp, label %if.then, label %if.end

if.then:                                          ; preds = %do.body
  br label %do.end

if.end:                                           ; preds = %do.body
  %1 = load ptr, ptr %o.addr, align 8
  %bf.load = load i32, ptr %1, align 8
  %bf.clear = and i32 %bf.load, 15
  call void (i32, ptr, ...) @_serverLog(i32 noundef 3, ptr noundef @.str.241, i32 noundef %bf.clear)
  br label %do.end

do.end:                                           ; preds = %if.end, %if.then
  br label %do.body1

do.body1:                                         ; preds = %do.end
  %2 = load i32, ptr getelementptr inbounds (%struct.redisServer, ptr @server, i32 0, i32 156), align 8
  %cmp2 = icmp slt i32 3, %2
  br i1 %cmp2, label %if.then3, label %if.end4

if.then3:                                         ; preds = %do.body1
  br label %do.end7

if.end4:                                          ; preds = %do.body1
  %3 = load ptr, ptr %o.addr, align 8
  %bf.load5 = load i32, ptr %3, align 8
  %bf.lshr = lshr i32 %bf.load5, 4
  %bf.clear6 = and i32 %bf.lshr, 15
  call void (i32, ptr, ...) @_serverLog(i32 noundef 3, ptr noundef @.str.242, i32 noundef %bf.clear6)
  br label %do.end7

do.end7:                                          ; preds = %if.end4, %if.then3
  br label %do.body8

do.body8:                                         ; preds = %do.end7
  %4 = load i32, ptr getelementptr inbounds (%struct.redisServer, ptr @server, i32 0, i32 156), align 8
  %cmp9 = icmp slt i32 3, %4
  br i1 %cmp9, label %if.then10, label %if.end11

if.then10:                                        ; preds = %do.body8
  br label %do.end12

if.end11:                                         ; preds = %do.body8
  %5 = load ptr, ptr %o.addr, align 8
  %refcount = getelementptr inbounds %struct.redisObject, ptr %5, i32 0, i32 1
  %6 = load i32, ptr %refcount, align 4
  call void (i32, ptr, ...) @_serverLog(i32 noundef 3, ptr noundef @.str.243, i32 noundef %6)
  br label %do.end12

do.end12:                                         ; preds = %if.end11, %if.then10
  ret void
}