; Function Attrs: nounwind uwtable
define dso_local void @serverLogObjectDebugInfo(ptr nocapture noundef readonly %o) local_unnamed_addr #0 {
entry:
  %0 = load i32, ptr getelementptr inbounds (%struct.redisServer, ptr @server, i64 0, i32 156), align 8
  %cmp = icmp sgt i32 %0, 3
  br i1 %cmp, label %do.end12, label %do.body1

do.body1:                                         ; preds = %entry
  %bf.load = load i32, ptr %o, align 8
  %bf.clear = and i32 %bf.load, 15
  tail call void (i32, ptr, ...) @_serverLog(i32 noundef 3, ptr noundef nonnull @.str.241, i32 noundef %bf.clear) #22
  %.pr = load i32, ptr getelementptr inbounds (%struct.redisServer, ptr @server, i64 0, i32 156), align 8
  %cmp2 = icmp sgt i32 %.pr, 3
  br i1 %cmp2, label %do.end12, label %do.body8

do.body8:                                         ; preds = %do.body1
  %bf.load5 = load i32, ptr %o, align 8
  %bf.lshr = lshr i32 %bf.load5, 4
  %bf.clear6 = and i32 %bf.lshr, 15
  tail call void (i32, ptr, ...) @_serverLog(i32 noundef 3, ptr noundef nonnull @.str.242, i32 noundef %bf.clear6) #22
  %.pr4 = load i32, ptr getelementptr inbounds (%struct.redisServer, ptr @server, i64 0, i32 156), align 8
  %cmp9 = icmp sgt i32 %.pr4, 3
  br i1 %cmp9, label %do.end12, label %if.end11

if.end11:                                         ; preds = %do.body8
  %refcount = getelementptr inbounds i8, ptr %o, i64 4
  %1 = load i32, ptr %refcount, align 4
  tail call void (i32, ptr, ...) @_serverLog(i32 noundef 3, ptr noundef nonnull @.str.243, i32 noundef %1) #22
  br label %do.end12

do.end12:                                         ; preds = %entry, %do.body1, %do.body8, %if.end11
  ret void
}